; Function Attrs: nounwind uwtable
define hidden void @mbedtls_ssl_set_timer(ptr noundef %0, i32 noundef %1) local_unnamed_addr #0 {
  %3 = getelementptr inbounds nuw i8, ptr %0, i64 168
  %4 = load ptr, ptr %3, align 8, !tbaa !3
  %5 = icmp eq ptr %4, null
  br i1 %5, label %11, label %6

6:                                                ; preds = %2
  tail call void (ptr, i32, ptr, i32, ptr, ...) @mbedtls_debug_print_msg(ptr noundef nonnull %0, i32 noundef 3, ptr noundef nonnull @.str, i32 noundef 291, ptr noundef nonnull @.str.1, i32 noundef %1) #19
  %7 = load ptr, ptr %3, align 8, !tbaa !3
  %8 = getelementptr inbounds nuw i8, ptr %0, i64 160
  %9 = load ptr, ptr %8, align 8, !tbaa !16
  %10 = lshr i32 %1, 2
  tail call void %7(ptr noundef %9, i32 noundef %10, i32 noundef %1) #19
  br label %11

11:                                               ; preds = %2, %6
  ret void
}